target datalayout = "e-m:e-p270:32:32-p271:32:32-p272:64:64-i64:64-i128:128-f80:128-n8:16:32:64-S128"
target triple = "x86_64-pc-linux-gnu"

%class.dtNavMeshQuery = type { ptr, %"struct.dtNavMeshQuery::dtQueryData", ptr, ptr, ptr }
%"struct.dtNavMeshQuery::dtQueryData" = type { i32, ptr, float, i32, i32, [3 x float], [3 x float], ptr, i32, float }
%struct.dtNode = type { [3 x float], float, float, i32, i32 }

; Function Attrs: mustprogress uwtable
define noundef i32 @_ZNK14dtNavMeshQuery25getPathFromDijkstraSearchEjPjPii(ptr noundef nonnull align 8 dereferenceable(104) %0, i32 noundef %1, ptr noundef %2, ptr noundef %3, i32 noundef %4) #1 align 2 {
  %6 = alloca i32, align 4
  %7 = alloca ptr, align 8
  %8 = alloca i32, align 4
  %9 = alloca ptr, align 8
  %10 = alloca ptr, align 8
  %11 = alloca i32, align 4
  %12 = alloca ptr, align 8
  store ptr %0, ptr %7, align 8
  store i32 %1, ptr %8, align 4
  store ptr %2, ptr %9, align 8
  store ptr %3, ptr %10, align 8
  store i32 %4, ptr %11, align 4
  %13 = load ptr, ptr %7, align 8
  %14 = getelementptr inbounds %class.dtNavMeshQuery, ptr %13, i32 0, i32 0
  %15 = load ptr, ptr %14, align 8
  %16 = load i32, ptr %8, align 4
  %17 = call noundef zeroext i1 @_ZNK9dtNavMesh14isValidPolyRefEj(ptr noundef nonnull align 8 dereferenceable(100) %15, i32 noundef %16)
  br i1 %17, label %18, label %27

18:                                               ; preds = %5
  %19 = load ptr, ptr %9, align 8
  %20 = icmp ne ptr %19, null
  br i1 %20, label %21, label %27

21:                                               ; preds = %18
  %22 = load ptr, ptr %10, align 8
  %23 = icmp ne ptr %22, null
  br i1 %23, label %24, label %27

24:                                               ; preds = %21
  %25 = load i32, ptr %11, align 4
  %26 = icmp slt i32 %25, 0
  br i1 %26, label %27, label %28

27:                                               ; preds = %24, %21, %18, %5
  store i32 -2147483640, ptr %6, align 4
  br label %50

28:                                               ; preds = %24
  %29 = load ptr, ptr %10, align 8
  store i32 0, ptr %29, align 4
  %30 = getelementptr inbounds %class.dtNavMeshQuery, ptr %13, i32 0, i32 3
  %31 = load ptr, ptr %30, align 8
  %32 = load i32, ptr %8, align 4
  %33 = call noundef i32 @_ZN10dtNodePool9findNodesEjPP6dtNodei(ptr noundef nonnull align 8 dereferenceable(36) %31, i32 noundef %32, ptr noundef %12, i32 noundef 1)
  %34 = icmp ne i32 %33, 1
  br i1 %34, label %43, label %35

35:                                               ; preds = %28
  %36 = load ptr, ptr %12, align 8
  %37 = getelementptr inbounds %struct.dtNode, ptr %36, i32 0, i32 3
  %38 = load i32, ptr %37, align 4
  %39 = lshr i32 %38, 26
  %40 = and i32 %39, 7
  %41 = and i32 %40, 2
  %42 = icmp eq i32 %41, 0
  br i1 %42, label %43, label %44

43:                                               ; preds = %35, %28
  store i32 -2147483640, ptr %6, align 4
  br label %50

44:                                               ; preds = %35
  %45 = load ptr, ptr %12, align 8
  %46 = load ptr, ptr %9, align 8
  %47 = load ptr, ptr %10, align 8
  %48 = load i32, ptr %11, align 4
  %49 = call noundef i32 @_ZNK14dtNavMeshQuery13getPathToNodeEP6dtNodePjPii(ptr noundef nonnull align 8 dereferenceable(104) %13, ptr noundef %45, ptr noundef %46, ptr noundef %47, i32 noundef %48)
  store i32 %49, ptr %6, align 4
  br label %50

50:                                               ; preds = %44, %43, %27
  %51 = load i32, ptr %6, align 4
  ret i32 %51
}