; Function Attrs: mustprogress uwtable
define noundef i32 @_ZNK14dtNavMeshQuery25getPathFromDijkstraSearchEjPjPii(ptr nocapture noundef nonnull readonly align 8 dereferenceable(104) %0, i32 noundef %1, ptr noundef writeonly %2, ptr noundef writeonly %3, i32 noundef %4) local_unnamed_addr #1 align 2 {
  %6 = alloca ptr, align 8
  %7 = load ptr, ptr %0, align 8
  %8 = tail call noundef zeroext i1 @_ZNK9dtNavMesh14isValidPolyRefEj(ptr noundef nonnull align 8 dereferenceable(100) %7, i32 noundef %1)
  %9 = icmp ne ptr %2, null
  %or.cond = and i1 %9, %8
  %10 = icmp ne ptr %3, null
  %or.cond3 = and i1 %10, %or.cond
  %11 = icmp sgt i32 %4, -1
  %or.cond5.not = and i1 %11, %or.cond3
  br i1 %or.cond5.not, label %12, label %24

12:                                               ; preds = %5
  store i32 0, ptr %3, align 4
  %13 = getelementptr inbounds i8, ptr %0, i64 88
  %14 = load ptr, ptr %13, align 8
  %15 = call noundef i32 @_ZN10dtNodePool9findNodesEjPP6dtNodei(ptr noundef nonnull align 8 dereferenceable(36) %14, i32 noundef %1, ptr noundef nonnull %6, i32 noundef 1)
  %.not = icmp eq i32 %15, 1
  br i1 %.not, label %16, label %24

16:                                               ; preds = %12
  %17 = load ptr, ptr %6, align 8
  %18 = getelementptr inbounds i8, ptr %17, i64 20
  %19 = load i32, ptr %18, align 4
  %20 = and i32 %19, 134217728
  %21 = icmp eq i32 %20, 0
  br i1 %21, label %24, label %22

22:                                               ; preds = %16
  %23 = call noundef i32 @_ZNK14dtNavMeshQuery13getPathToNodeEP6dtNodePjPii(ptr noundef nonnull align 8 dereferenceable(104) %0, ptr noundef nonnull %17, ptr noundef nonnull %2, ptr noundef nonnull %3, i32 noundef %4), !range !30
  br label %24

24:                                               ; preds = %12, %16, %5, %22
  %.0 = phi i32 [ %23, %22 ], [ -2147483640, %5 ], [ -2147483640, %16 ], [ -2147483640, %12 ]
  ret i32 %.0
}